target datalayout = "e-m:e-p270:32:32-p271:32:32-p272:64:64-i64:64-i128:128-f80:128-n8:16:32:64-S128"
target triple = "x86_64-pc-linux-gnu"

%struct.AVFilterContext = type { ptr, ptr, ptr, ptr, ptr, i32, ptr, ptr, i32, ptr, ptr, i32, i32, ptr, ptr, ptr, ptr, i32, ptr, i32, i32 }
%struct.AmplifyContext = type { ptr, ptr, i32, float, float, float, i32, float, float, i32, i32, i32, i32, [4 x i32], [4 x i32], ptr }
%struct.AVFilterLink = type { ptr, ptr, ptr, ptr, i32, i32, i32, i32, %struct.AVRational, i32, i32, i32, %struct.AVChannelLayout, %struct.AVRational, ptr, i32, %struct.AVFilterFormatsConfig, %struct.AVFilterFormatsConfig }
%struct.AVChannelLayout = type { i32, i32, %union.anon.1, ptr }
%union.anon.1 = type { i64 }
%struct.AVRational = type { i32, i32 }
%struct.AVFilterFormatsConfig = type { ptr, ptr, ptr, ptr, ptr }
%struct.AVPixFmtDescriptor = type { ptr, i8, i8, i8, i64, [4 x %struct.AVComponentDescriptor], ptr }
%struct.AVComponentDescriptor = type { i32, i32, i32, i32, i32 }

; Function Attrs: nounwind uwtable
define internal i32 @config_output(ptr noundef %0) #2 {
  %2 = alloca i32, align 4
  %3 = alloca ptr, align 8
  %4 = alloca ptr, align 8
  %5 = alloca ptr, align 8
  %6 = alloca ptr, align 8
  %7 = alloca i32, align 4
  %8 = alloca i32, align 4
  store ptr %0, ptr %3, align 8, !tbaa !35
  call void @llvm.lifetime.start.p0(i64 8, ptr %4) #9
  %9 = load ptr, ptr %3, align 8, !tbaa !35
  %10 = getelementptr inbounds nuw %struct.AVFilterLink, ptr %9, i32 0, i32 0
  %11 = load ptr, ptr %10, align 8, !tbaa !94
  store ptr %11, ptr %4, align 8, !tbaa !4
  call void @llvm.lifetime.start.p0(i64 8, ptr %5) #9
  %12 = load ptr, ptr %4, align 8, !tbaa !4
  %13 = getelementptr inbounds nuw %struct.AVFilterContext, ptr %12, i32 0, i32 9
  %14 = load ptr, ptr %13, align 8, !tbaa !9
  store ptr %14, ptr %5, align 8, !tbaa !22
  call void @llvm.lifetime.start.p0(i64 8, ptr %6) #9
  %15 = load ptr, ptr %4, align 8, !tbaa !4
  %16 = getelementptr inbounds nuw %struct.AVFilterContext, ptr %15, i32 0, i32 4
  %17 = load ptr, ptr %16, align 8, !tbaa !95
  %18 = getelementptr inbounds ptr, ptr %17, i64 0
  %19 = load ptr, ptr %18, align 8, !tbaa !35
  store ptr %19, ptr %6, align 8, !tbaa !35
  call void @llvm.lifetime.start.p0(i64 4, ptr %7) #9
  %20 = load ptr, ptr %3, align 8, !tbaa !35
  %21 = getelementptr inbounds nuw %struct.AVFilterLink, ptr %20, i32 0, i32 5
  %22 = load i32, ptr %21, align 4, !tbaa !96
  %23 = call ptr @av_pix_fmt_desc_get(i32 noundef %22)
  %24 = load ptr, ptr %5, align 8, !tbaa !22
  %25 = getelementptr inbounds nuw %struct.AmplifyContext, ptr %24, i32 0, i32 1
  store ptr %23, ptr %25, align 8, !tbaa !97
  %26 = load ptr, ptr %5, align 8, !tbaa !22
  %27 = getelementptr inbounds nuw %struct.AmplifyContext, ptr %26, i32 0, i32 1
  %28 = load ptr, ptr %27, align 8, !tbaa !97
  %29 = icmp ne ptr %28, null
  br i1 %29, label %31, label %30

30:                                               ; preds = %1
  store i32 -558323010, ptr %2, align 4
  store i32 1, ptr %8, align 4
  br label %117

31:                                               ; preds = %1
  %32 = load ptr, ptr %3, align 8, !tbaa !35
  %33 = getelementptr inbounds nuw %struct.AVFilterLink, ptr %32, i32 0, i32 5
  %34 = load i32, ptr %33, align 4, !tbaa !96
  %35 = call i32 @av_pix_fmt_count_planes(i32 noundef %34)
  %36 = load ptr, ptr %5, align 8, !tbaa !22
  %37 = getelementptr inbounds nuw %struct.AmplifyContext, ptr %36, i32 0, i32 12
  store i32 %35, ptr %37, align 8, !tbaa !71
  %38 = load ptr, ptr %5, align 8, !tbaa !22
  %39 = getelementptr inbounds nuw %struct.AmplifyContext, ptr %38, i32 0, i32 1
  %40 = load ptr, ptr %39, align 8, !tbaa !97
  %41 = getelementptr inbounds nuw %struct.AVPixFmtDescriptor, ptr %40, i32 0, i32 5
  %42 = getelementptr inbounds [4 x %struct.AVComponentDescriptor], ptr %41, i64 0, i64 0
  %43 = getelementptr inbounds nuw %struct.AVComponentDescriptor, ptr %42, i32 0, i32 4
  %44 = load i32, ptr %43, align 8, !tbaa !98
  %45 = load ptr, ptr %5, align 8, !tbaa !22
  %46 = getelementptr inbounds nuw %struct.AmplifyContext, ptr %45, i32 0, i32 11
  store i32 %44, ptr %46, align 4, !tbaa !68
  %47 = load ptr, ptr %5, align 8, !tbaa !22
  %48 = getelementptr inbounds nuw %struct.AmplifyContext, ptr %47, i32 0, i32 13
  %49 = getelementptr inbounds [4 x i32], ptr %48, i64 0, i64 0
  %50 = load ptr, ptr %6, align 8, !tbaa !35
  %51 = getelementptr inbounds nuw %struct.AVFilterLink, ptr %50, i32 0, i32 5
  %52 = load i32, ptr %51, align 4, !tbaa !96
  %53 = load ptr, ptr %6, align 8, !tbaa !35
  %54 = getelementptr inbounds nuw %struct.AVFilterLink, ptr %53, i32 0, i32 6
  %55 = load i32, ptr %54, align 8, !tbaa !49
  %56 = call i32 @av_image_fill_linesizes(ptr noundef %49, i32 noundef %52, i32 noundef %55)
  store i32 %56, ptr %7, align 4, !tbaa !31
  %57 = icmp slt i32 %56, 0
  br i1 %57, label %58, label %60

58:                                               ; preds = %31
  %59 = load i32, ptr %7, align 4, !tbaa !31
  store i32 %59, ptr %2, align 4
  store i32 1, ptr %8, align 4
  br label %117

60:                                               ; preds = %31
  %61 = load ptr, ptr %5, align 8, !tbaa !22
  %62 = getelementptr inbounds nuw %struct.AmplifyContext, ptr %61, i32 0, i32 1
  %63 = load ptr, ptr %62, align 8, !tbaa !97
  %64 = getelementptr inbounds nuw %struct.AVPixFmtDescriptor, ptr %63, i32 0, i32 3
  %65 = load i8, ptr %64, align 2, !tbaa !100
  %66 = call i1 @llvm.is.constant.i8(i8 %65)
  br i1 %66, label %80, label %67

67:                                               ; preds = %60
  %68 = load ptr, ptr %6, align 8, !tbaa !35
  %69 = getelementptr inbounds nuw %struct.AVFilterLink, ptr %68, i32 0, i32 7
  %70 = load i32, ptr %69, align 4, !tbaa !50
  %71 = sub nsw i32 0, %70
  %72 = load ptr, ptr %5, align 8, !tbaa !22
  %73 = getelementptr inbounds nuw %struct.AmplifyContext, ptr %72, i32 0, i32 1
  %74 = load ptr, ptr %73, align 8, !tbaa !97
  %75 = getelementptr inbounds nuw %struct.AVPixFmtDescriptor, ptr %74, i32 0, i32 3
  %76 = load i8, ptr %75, align 2, !tbaa !100
  %77 = zext i8 %76 to i32
  %78 = ashr i32 %71, %77
  %79 = sub nsw i32 0, %78
  br label %100

80:                                               ; preds = %60
  %81 = load ptr, ptr %6, align 8, !tbaa !35
  %82 = getelementptr inbounds nuw %struct.AVFilterLink, ptr %81, i32 0, i32 7
  %83 = load i32, ptr %82, align 4, !tbaa !50
  %84 = load ptr, ptr %5, align 8, !tbaa !22
  %85 = getelementptr inbounds nuw %struct.AmplifyContext, ptr %84, i32 0, i32 1
  %86 = load ptr, ptr %85, align 8, !tbaa !97
  %87 = getelementptr inbounds nuw %struct.AVPixFmtDescriptor, ptr %86, i32 0, i32 3
  %88 = load i8, ptr %87, align 2, !tbaa !100
  %89 = zext i8 %88 to i32
  %90 = shl i32 1, %89
  %91 = add nsw i32 %83, %90
  %92 = sub nsw i32 %91, 1
  %93 = load ptr, ptr %5, align 8, !tbaa !22
  %94 = getelementptr inbounds nuw %struct.AmplifyContext, ptr %93, i32 0, i32 1
  %95 = load ptr, ptr %94, align 8, !tbaa !97
  %96 = getelementptr inbounds nuw %struct.AVPixFmtDescriptor, ptr %95, i32 0, i32 3
  %97 = load i8, ptr %96, align 2, !tbaa !100
  %98 = zext i8 %97 to i32
  %99 = ashr i32 %92, %98
  br label %100

100:                                              ; preds = %80, %67
  %101 = phi i32 [ %79, %67 ], [ %99, %80 ]
  %102 = load ptr, ptr %5, align 8, !tbaa !22
  %103 = getelementptr inbounds nuw %struct.AmplifyContext, ptr %102, i32 0, i32 14
  %104 = getelementptr inbounds [4 x i32], ptr %103, i64 0, i64 2
  store i32 %101, ptr %104, align 4, !tbaa !31
  %105 = load ptr, ptr %5, align 8, !tbaa !22
  %106 = getelementptr inbounds nuw %struct.AmplifyContext, ptr %105, i32 0, i32 14
  %107 = getelementptr inbounds [4 x i32], ptr %106, i64 0, i64 1
  store i32 %101, ptr %107, align 4, !tbaa !31
  %108 = load ptr, ptr %6, align 8, !tbaa !35
  %109 = getelementptr inbounds nuw %struct.AVFilterLink, ptr %108, i32 0, i32 7
  %110 = load i32, ptr %109, align 4, !tbaa !50
  %111 = load ptr, ptr %5, align 8, !tbaa !22
  %112 = getelementptr inbounds nuw %struct.AmplifyContext, ptr %111, i32 0, i32 14
  %113 = getelementptr inbounds [4 x i32], ptr %112, i64 0, i64 3
  store i32 %110, ptr %113, align 4, !tbaa !31
  %114 = load ptr, ptr %5, align 8, !tbaa !22
  %115 = getelementptr inbounds nuw %struct.AmplifyContext, ptr %114, i32 0, i32 14
  %116 = getelementptr inbounds [4 x i32], ptr %115, i64 0, i64 0
  store i32 %110, ptr %116, align 4, !tbaa !31
  store i32 0, ptr %2, align 4
  store i32 1, ptr %8, align 4
  br label %117

117:                                              ; preds = %100, %58, %30
  call void @llvm.lifetime.end.p0(i64 4, ptr %7) #9
  call void @llvm.lifetime.end.p0(i64 8, ptr %6) #9
  call void @llvm.lifetime.end.p0(i64 8, ptr %5) #9
  call void @llvm.lifetime.end.p0(i64 8, ptr %4) #9
  %118 = load i32, ptr %2, align 4
  ret i32 %118
}