; Function Attrs: nounwind uwtable
define internal range(i32 -2147483648, 1) i32 @config_output(ptr noundef readonly captures(none) %0) #2 {
  %2 = load ptr, ptr %0, align 8, !tbaa !83
  %3 = getelementptr inbounds nuw i8, ptr %2, i64 72
  %4 = load ptr, ptr %3, align 8, !tbaa !4
  %5 = getelementptr inbounds nuw i8, ptr %2, i64 32
  %6 = load ptr, ptr %5, align 8, !tbaa !84
  %7 = load ptr, ptr %6, align 8, !tbaa !40
  %8 = getelementptr inbounds nuw i8, ptr %0, i64 36
  %9 = load i32, ptr %8, align 4, !tbaa !85
  %10 = tail call ptr @av_pix_fmt_desc_get(i32 noundef %9) #8
  %11 = getelementptr inbounds nuw i8, ptr %4, i64 8
  store ptr %10, ptr %11, align 8, !tbaa !86
  %.not = icmp eq ptr %10, null
  br i1 %.not, label %43, label %12

12:                                               ; preds = %1
  %13 = load i32, ptr %8, align 4, !tbaa !85
  %14 = tail call i32 @av_pix_fmt_count_planes(i32 noundef %13) #8
  %15 = getelementptr inbounds nuw i8, ptr %4, i64 56
  store i32 %14, ptr %15, align 8, !tbaa !63
  %16 = load ptr, ptr %11, align 8, !tbaa !86
  %17 = getelementptr inbounds nuw i8, ptr %16, i64 40
  %18 = load i32, ptr %17, align 8, !tbaa !87
  %19 = getelementptr inbounds nuw i8, ptr %4, i64 52
  store i32 %18, ptr %19, align 4, !tbaa !60
  %20 = getelementptr inbounds nuw i8, ptr %4, i64 60
  %21 = getelementptr inbounds nuw i8, ptr %7, i64 36
  %22 = load i32, ptr %21, align 4, !tbaa !85
  %23 = getelementptr inbounds nuw i8, ptr %7, i64 40
  %24 = load i32, ptr %23, align 8, !tbaa !45
  %25 = tail call i32 @av_image_fill_linesizes(ptr noundef nonnull %20, i32 noundef %22, i32 noundef %24) #8
  %26 = icmp slt i32 %25, 0
  br i1 %26, label %43, label %27

27:                                               ; preds = %12
  %28 = getelementptr inbounds nuw i8, ptr %7, i64 44
  %29 = load i32, ptr %28, align 4, !tbaa !46
  %30 = sub nsw i32 0, %29
  %31 = load ptr, ptr %11, align 8, !tbaa !86
  %32 = getelementptr inbounds nuw i8, ptr %31, i64 10
  %33 = load i8, ptr %32, align 2, !tbaa !89
  %34 = zext nneg i8 %33 to i32
  %35 = ashr i32 %30, %34
  %36 = sub nsw i32 0, %35
  %37 = getelementptr inbounds nuw i8, ptr %4, i64 76
  %38 = getelementptr inbounds nuw i8, ptr %4, i64 84
  store i32 %36, ptr %38, align 4, !tbaa !50
  %39 = getelementptr inbounds nuw i8, ptr %4, i64 80
  store i32 %36, ptr %39, align 4, !tbaa !50
  %40 = getelementptr inbounds nuw i8, ptr %7, i64 44
  %41 = load i32, ptr %40, align 4, !tbaa !46
  %42 = getelementptr inbounds nuw i8, ptr %4, i64 88
  store i32 %41, ptr %42, align 4, !tbaa !50
  store i32 %41, ptr %37, align 4, !tbaa !50
  br label %43

43:                                               ; preds = %12, %1, %27
  %.0 = phi i32 [ 0, %27 ], [ -558323010, %1 ], [ %25, %12 ]
  ret i32 %.0
}